; ModuleID = 'source-C-CXX/20/172.c'
source_filename = "source-C-CXX/20/172.c"
target datalayout = "e-m:e-p270:32:32-p271:32:32-p272:64:64-i64:64-f80:128-n8:16:32:64-S128"
target triple = "x86_64-pc-linux-gnu"

@.str = private unnamed_addr constant [3 x i8] c"%d\00", align 1
@.str.1 = private unnamed_addr constant [4 x i8] c"%d\0A\00", align 1
@.str.2 = private unnamed_addr constant [7 x i8] c"%d,%d\0A\00", align 1

; Function Attrs: nofree nounwind sspstrong uwtable
define dso_local void @main() local_unnamed_addr #0 {
  %1 = alloca [100 x i32], align 16
  %2 = alloca i32, align 4
  %3 = bitcast [100 x i32]* %1 to i8*
  call void @llvm.lifetime.start.p0i8(i64 400, i8* nonnull %3) #3
  %4 = bitcast i32* %2 to i8*
  call void @llvm.lifetime.start.p0i8(i64 4, i8* nonnull %4) #3
  %5 = call i32 (i8*, ...) @__isoc99_scanf(i8* getelementptr inbounds ([3 x i8], [3 x i8]* @.str, i64 0, i64 0), i32* nonnull %2)
  %6 = load i32, i32* %2, align 4, !tbaa !5
  %7 = icmp sgt i32 %6, 0
  br i1 %7, label %11, label %8

8:                                                ; preds = %0
  %9 = sitofp i32 %6 to float
  %10 = fdiv float 0.000000e+00, %9
  br label %94

11:                                               ; preds = %0, %11
  %12 = phi i64 [ %19, %11 ], [ 0, %0 ]
  %13 = phi float [ %18, %11 ], [ 0.000000e+00, %0 ]
  %14 = getelementptr inbounds [100 x i32], [100 x i32]* %1, i64 0, i64 %12
  %15 = call i32 (i8*, ...) @__isoc99_scanf(i8* getelementptr inbounds ([3 x i8], [3 x i8]* @.str, i64 0, i64 0), i32* nonnull %14)
  %16 = load i32, i32* %14, align 4, !tbaa !5
  %17 = sitofp i32 %16 to float
  %18 = fadd float %13, %17
  %19 = add nuw nsw i64 %12, 1
  %20 = load i32, i32* %2, align 4, !tbaa !5
  %21 = sext i32 %20 to i64
  %22 = icmp slt i64 %19, %21
  br i1 %22, label %11, label %23, !llvm.loop !9

23:                                               ; preds = %11
  %24 = sitofp i32 %20 to float
  %25 = fdiv float %18, %24
  %26 = icmp sgt i32 %20, 0
  br i1 %26, label %27, label %94

27:                                               ; preds = %23
  %28 = zext i32 %20 to i64
  %29 = and i64 %28, 1
  %30 = icmp eq i32 %20, 1
  br i1 %30, label %68, label %31

31:                                               ; preds = %27
  %32 = and i64 %28, 4294967294
  br label %33

33:                                               ; preds = %33, %31
  %34 = phi i64 [ 0, %31 ], [ %65, %33 ]
  %35 = phi i32 [ 0, %31 ], [ %59, %33 ]
  %36 = phi i32 [ 0, %31 ], [ %64, %33 ]
  %37 = phi i64 [ %32, %31 ], [ %66, %33 ]
  %38 = getelementptr inbounds [100 x i32], [100 x i32]* %1, i64 0, i64 %34
  %39 = load i32, i32* %38, align 8, !tbaa !5
  %40 = sext i32 %35 to i64
  %41 = getelementptr inbounds [100 x i32], [100 x i32]* %1, i64 0, i64 %40
  %42 = load i32, i32* %41, align 4, !tbaa !5
  %43 = icmp slt i32 %39, %42
  %44 = trunc i64 %34 to i32
  %45 = select i1 %43, i32 %44, i32 %35
  %46 = sext i32 %36 to i64
  %47 = getelementptr inbounds [100 x i32], [100 x i32]* %1, i64 0, i64 %46
  %48 = load i32, i32* %47, align 4, !tbaa !5
  %49 = icmp sgt i32 %39, %48
  %50 = select i1 %49, i32 %44, i32 %36
  %51 = or i64 %34, 1
  %52 = getelementptr inbounds [100 x i32], [100 x i32]* %1, i64 0, i64 %51
  %53 = load i32, i32* %52, align 4, !tbaa !5
  %54 = sext i32 %45 to i64
  %55 = getelementptr inbounds [100 x i32], [100 x i32]* %1, i64 0, i64 %54
  %56 = load i32, i32* %55, align 4, !tbaa !5
  %57 = icmp slt i32 %53, %56
  %58 = trunc i64 %51 to i32
  %59 = select i1 %57, i32 %58, i32 %45
  %60 = sext i32 %50 to i64
  %61 = getelementptr inbounds [100 x i32], [100 x i32]* %1, i64 0, i64 %60
  %62 = load i32, i32* %61, align 4, !tbaa !5
  %63 = icmp sgt i32 %53, %62
  %64 = select i1 %63, i32 %58, i32 %50
  %65 = add nuw nsw i64 %34, 2
  %66 = add i64 %37, -2
  %67 = icmp eq i64 %66, 0
  br i1 %67, label %68, label %33, !llvm.loop !11

68:                                               ; preds = %33, %27
  %69 = phi i32 [ undef, %27 ], [ %59, %33 ]
  %70 = phi i32 [ undef, %27 ], [ %64, %33 ]
  %71 = phi i64 [ 0, %27 ], [ %65, %33 ]
  %72 = phi i32 [ 0, %27 ], [ %59, %33 ]
  %73 = phi i32 [ 0, %27 ], [ %64, %33 ]
  %74 = icmp eq i64 %29, 0
  br i1 %74, label %89, label %75

75:                                               ; preds = %68
  %76 = getelementptr inbounds [100 x i32], [100 x i32]* %1, i64 0, i64 %71
  %77 = load i32, i32* %76, align 4, !tbaa !5
  %78 = trunc i64 %71 to i32
  %79 = sext i32 %73 to i64
  %80 = getelementptr inbounds [100 x i32], [100 x i32]* %1, i64 0, i64 %79
  %81 = load i32, i32* %80, align 4, !tbaa !5
  %82 = icmp sgt i32 %77, %81
  %83 = select i1 %82, i32 %78, i32 %73
  %84 = sext i32 %72 to i64
  %85 = getelementptr inbounds [100 x i32], [100 x i32]* %1, i64 0, i64 %84
  %86 = load i32, i32* %85, align 4, !tbaa !5
  %87 = icmp slt i32 %77, %86
  %88 = select i1 %87, i32 %78, i32 %72
  br label %89

89:                                               ; preds = %68, %75
  %90 = phi i32 [ %69, %68 ], [ %88, %75 ]
  %91 = phi i32 [ %70, %68 ], [ %83, %75 ]
  %92 = sext i32 %90 to i64
  %93 = sext i32 %91 to i64
  br label %94

94:                                               ; preds = %8, %89, %23
  %95 = phi float [ %25, %23 ], [ %25, %89 ], [ %10, %8 ]
  %96 = phi i64 [ 0, %23 ], [ %93, %89 ], [ 0, %8 ]
  %97 = phi i64 [ 0, %23 ], [ %92, %89 ], [ 0, %8 ]
  %98 = getelementptr inbounds [100 x i32], [100 x i32]* %1, i64 0, i64 %97
  %99 = load i32, i32* %98, align 4, !tbaa !5
  %100 = sitofp i32 %99 to float
  %101 = fsub float %95, %100
  %102 = getelementptr inbounds [100 x i32], [100 x i32]* %1, i64 0, i64 %96
  %103 = load i32, i32* %102, align 4, !tbaa !5
  %104 = sitofp i32 %103 to float
  %105 = fsub float %104, %95
  %106 = fcmp ogt float %101, %105
  br i1 %106, label %107, label %109

107:                                              ; preds = %94
  %108 = call i32 (i8*, ...) @printf(i8* nonnull dereferenceable(1) getelementptr inbounds ([4 x i8], [4 x i8]* @.str.1, i64 0, i64 0), i32 %99)
  br label %117

109:                                              ; preds = %94
  %110 = fcmp olt float %101, %105
  br i1 %110, label %111, label %113

111:                                              ; preds = %109
  %112 = call i32 (i8*, ...) @printf(i8* nonnull dereferenceable(1) getelementptr inbounds ([4 x i8], [4 x i8]* @.str.1, i64 0, i64 0), i32 %103)
  br label %117

113:                                              ; preds = %109
  %114 = fcmp oeq float %101, %105
  br i1 %114, label %115, label %117

115:                                              ; preds = %113
  %116 = call i32 (i8*, ...) @printf(i8* nonnull dereferenceable(1) getelementptr inbounds ([7 x i8], [7 x i8]* @.str.2, i64 0, i64 0), i32 %99, i32 %103)
  br label %117

117:                                              ; preds = %111, %115, %113, %107
  call void @llvm.lifetime.end.p0i8(i64 4, i8* nonnull %4) #3
  call void @llvm.lifetime.end.p0i8(i64 400, i8* nonnull %3) #3
  ret void
}

; Function Attrs: argmemonly mustprogress nofree nosync nounwind willreturn
declare void @llvm.lifetime.start.p0i8(i64 immarg, i8* nocapture) #1

; Function Attrs: nofree nounwind
declare noundef i32 @__isoc99_scanf(i8* nocapture noundef readonly, ...) local_unnamed_addr #2

; Function Attrs: nofree nounwind
declare noundef i32 @printf(i8* nocapture noundef readonly, ...) local_unnamed_addr #2

; Function Attrs: argmemonly mustprogress nofree nosync nounwind willreturn
declare void @llvm.lifetime.end.p0i8(i64 immarg, i8* nocapture) #1


!llvm.module.flags = !{!0, !1, !2, !3}
!llvm.ident = !{!4}

!0 = !{i32 1, !"wchar_size", i32 4}
!1 = !{i32 7, !"PIC Level", i32 2}
!2 = !{i32 7, !"PIE Level", i32 2}
!3 = !{i32 7, !"uwtable", i32 1}
!4 = !{!"clang version 13.0.0"}
!5 = !{!6, !6, i64 0}
!6 = !{!"int", !7, i64 0}
!7 = !{!"omnipotent char", !8, i64 0}
!8 = !{!"Simple C/C++ TBAA"}
!9 = distinct !{!9, !10}
!10 = !{!"llvm.loop.mustprogress"}
!11 = distinct !{!11, !10}
